target datalayout = "e-m:e-p270:32:32-p271:32:32-p272:64:64-i64:64-i128:128-f80:128-n8:16:32:64-S128"
target triple = "x86_64-pc-linux-gnu"

%"class.llvm::MCInstPrinter" = type <{ ptr, ptr, ptr, ptr, ptr, ptr, i8, i8, i8, i8, i32, i8, i8, [6 x i8] }>

@_ZTVN4llvm13MCInstPrinterE = external unnamed_addr constant { [8 x ptr] }, align 8

; Function Attrs: mustprogress nounwind uwtable
define linkonce_odr hidden void @_ZN4llvm13MCInstPrinterC2ERKNS_9MCAsmInfoERKNS_11MCInstrInfoERKNS_14MCRegisterInfoE(ptr noundef nonnull align 8 dereferenceable(58) %0, ptr noundef nonnull align 8 dereferenceable(484) %1, ptr noundef nonnull align 1 %2, ptr noundef nonnull align 8 dereferenceable(224) %3) unnamed_addr #0 comdat align 2 {
  %5 = alloca ptr, align 8
  %6 = alloca ptr, align 8
  %7 = alloca ptr, align 8
  %8 = alloca ptr, align 8
  store ptr %0, ptr %5, align 8
  store ptr %1, ptr %6, align 8
  store ptr %2, ptr %7, align 8
  store ptr %3, ptr %8, align 8
  %9 = load ptr, ptr %5, align 8
  store ptr getelementptr inbounds inrange(-16, 48) ({ [8 x ptr] }, ptr @_ZTVN4llvm13MCInstPrinterE, i32 0, i32 0, i32 2), ptr %9, align 8
  %10 = getelementptr inbounds nuw %"class.llvm::MCInstPrinter", ptr %9, i32 0, i32 1
  store ptr null, ptr %10, align 8
  %11 = getelementptr inbounds nuw %"class.llvm::MCInstPrinter", ptr %9, i32 0, i32 2
  %12 = load ptr, ptr %6, align 8
  store ptr %12, ptr %11, align 8
  %13 = getelementptr inbounds nuw %"class.llvm::MCInstPrinter", ptr %9, i32 0, i32 3
  %14 = load ptr, ptr %7, align 8
  store ptr %14, ptr %13, align 8
  %15 = getelementptr inbounds nuw %"class.llvm::MCInstPrinter", ptr %9, i32 0, i32 4
  %16 = load ptr, ptr %8, align 8
  store ptr %16, ptr %15, align 8
  %17 = getelementptr inbounds nuw %"class.llvm::MCInstPrinter", ptr %9, i32 0, i32 5
  store ptr null, ptr %17, align 8
  %18 = getelementptr inbounds nuw %"class.llvm::MCInstPrinter", ptr %9, i32 0, i32 6
  store i8 0, ptr %18, align 8
  %19 = getelementptr inbounds nuw %"class.llvm::MCInstPrinter", ptr %9, i32 0, i32 7
  store i8 0, ptr %19, align 1
  %20 = getelementptr inbounds nuw %"class.llvm::MCInstPrinter", ptr %9, i32 0, i32 8
  store i8 1, ptr %20, align 2
  %21 = getelementptr inbounds nuw %"class.llvm::MCInstPrinter", ptr %9, i32 0, i32 9
  store i8 0, ptr %21, align 1
  %22 = getelementptr inbounds nuw %"class.llvm::MCInstPrinter", ptr %9, i32 0, i32 10
  store i32 0, ptr %22, align 4
  %23 = getelementptr inbounds nuw %"class.llvm::MCInstPrinter", ptr %9, i32 0, i32 11
  store i8 0, ptr %23, align 8
  %24 = getelementptr inbounds nuw %"class.llvm::MCInstPrinter", ptr %9, i32 0, i32 12
  store i8 0, ptr %24, align 1
  ret void
}

; Function Attrs: mustprogress nounwind uwtable
define dso_local void @_ZN4llvm18AArch64InstPrinterC2ERKNS_9MCAsmInfoERKNS_11MCInstrInfoERKNS_14MCRegisterInfoE(ptr noundef nonnull align 8 dereferenceable(58) %0, ptr noundef nonnull align 8 dereferenceable(484) %1, ptr noundef nonnull align 1 %2, ptr noundef nonnull align 8 dereferenceable(224) %3) unnamed_addr #0 align 2 {
  %5 = alloca ptr, align 8
  %6 = alloca ptr, align 8
  %7 = alloca ptr, align 8
  %8 = alloca ptr, align 8
  store ptr %0, ptr %5, align 8
  store ptr %1, ptr %6, align 8
  store ptr %2, ptr %7, align 8
  store ptr %3, ptr %8, align 8
  %9 = load ptr, ptr %5, align 8
  %10 = load ptr, ptr %6, align 8
  %11 = load ptr, ptr %7, align 8
  %12 = load ptr, ptr %8, align 8
  call void @_ZN4llvm13MCInstPrinterC2ERKNS_9MCAsmInfoERKNS_11MCInstrInfoERKNS_14MCRegisterInfoE(ptr noundef nonnull align 8 dereferenceable(58) %9, ptr noundef nonnull align 8 dereferenceable(484) %10, ptr noundef nonnull align 1 %11, ptr noundef nonnull align 8 dereferenceable(224) %12)
  store ptr getelementptr inbounds inrange(-16, 80) ({ [12 x ptr] }, ptr @_ZTVN4llvm18AArch64InstPrinterE, i32 0, i32 0, i32 2), ptr %9, align 8
  ret void
}