; Function Attrs: mustprogress nofree norecurse nosync nounwind willreturn memory(argmem: write) uwtable
define dso_local void @_ZN4llvm18AArch64InstPrinterC2ERKNS_9MCAsmInfoERKNS_11MCInstrInfoERKNS_14MCRegisterInfoE(ptr nocapture noundef nonnull writeonly align 8 dereferenceable(58) %0, ptr noundef nonnull align 8 dereferenceable(484) %1, ptr noundef nonnull align 1 %2, ptr noundef nonnull align 8 dereferenceable(224) %3) unnamed_addr #5 align 2 {
  %5 = getelementptr inbounds nuw i8, ptr %0, i64 8
  store ptr null, ptr %5, align 8
  %6 = getelementptr inbounds nuw i8, ptr %0, i64 16
  store ptr %1, ptr %6, align 8
  %7 = getelementptr inbounds nuw i8, ptr %0, i64 24
  store ptr %2, ptr %7, align 8
  %8 = getelementptr inbounds nuw i8, ptr %0, i64 32
  store ptr %3, ptr %8, align 8
  %9 = getelementptr inbounds nuw i8, ptr %0, i64 40
  store ptr null, ptr %9, align 8
  %10 = getelementptr inbounds nuw i8, ptr %0, i64 48
  store i8 0, ptr %10, align 8
  %11 = getelementptr inbounds nuw i8, ptr %0, i64 49
  store i8 0, ptr %11, align 1
  %12 = getelementptr inbounds nuw i8, ptr %0, i64 50
  store i8 1, ptr %12, align 2
  %13 = getelementptr inbounds nuw i8, ptr %0, i64 51
  tail call void @llvm.memset.p0.i64(ptr noundef nonnull align 1 dereferenceable(7) %13, i8 0, i64 7, i1 false)
  store ptr getelementptr inbounds inrange(-16, 80) (i8, ptr @_ZTVN4llvm18AArch64InstPrinterE, i64 16), ptr %0, align 8
  ret void
}